target datalayout = "e-m:e-p270:32:32-p271:32:32-p272:64:64-i64:64-i128:128-f80:128-n8:16:32:64-S128"
target triple = "x86_64-pc-linux-gnu"

%"class.smt::relevancy_eh" = type { ptr }
%"class.smt::and_relevancy_eh" = type { %"class.smt::relevancy_eh", ptr }

; Function Attrs: mustprogress uwtable
define hidden void @_ZN3smt16and_relevancy_ehclERNS_20relevancy_propagatorE(ptr noundef nonnull align 8 dereferenceable(16) %0, ptr noundef nonnull align 8 dereferenceable(16) %1) unnamed_addr #6 align 2 {
  %3 = alloca ptr, align 8
  %4 = alloca ptr, align 8
  store ptr %0, ptr %3, align 8, !tbaa !553
  store ptr %1, ptr %4, align 8, !tbaa !30
  %5 = load ptr, ptr %3, align 8
  %6 = load ptr, ptr %4, align 8, !tbaa !30
  %7 = getelementptr inbounds nuw %"class.smt::and_relevancy_eh", ptr %5, i32 0, i32 1
  %8 = load ptr, ptr %7, align 8, !tbaa !555
  %9 = load ptr, ptr %6, align 8, !tbaa !34
  %10 = getelementptr inbounds ptr, ptr %9, i64 7
  %11 = load ptr, ptr %10, align 8
  %12 = call noundef zeroext i1 %11(ptr noundef nonnull align 8 dereferenceable(16) %6, ptr noundef %8)
  br i1 %12, label %13, label %17

13:                                               ; preds = %2
  %14 = load ptr, ptr %4, align 8, !tbaa !30
  %15 = getelementptr inbounds nuw %"class.smt::and_relevancy_eh", ptr %5, i32 0, i32 1
  %16 = load ptr, ptr %15, align 8, !tbaa !555
  call void @_ZN3smt24relevancy_propagator_imp22propagate_relevant_andEP3app(ptr noundef nonnull align 8 dereferenceable(137) %14, ptr noundef %16)
  br label %17

17:                                               ; preds = %13, %2
  ret void
}