; Function Attrs: mustprogress uwtable
define hidden void @_ZN3smt16and_relevancy_ehclERNS_20relevancy_propagatorE(ptr noundef nonnull readonly align 8 captures(none) dereferenceable(16) %0, ptr noundef nonnull align 8 dereferenceable(16) %1) unnamed_addr #4 align 2 {
  %3 = getelementptr inbounds nuw i8, ptr %0, i64 8
  %4 = load ptr, ptr %3, align 8, !tbaa !526
  %5 = load ptr, ptr %1, align 8, !tbaa !3
  %6 = getelementptr inbounds nuw i8, ptr %5, i64 56
  %7 = load ptr, ptr %6, align 8
  %8 = tail call noundef zeroext i1 %7(ptr noundef nonnull align 8 dereferenceable(16) %1, ptr noundef %4)
  br i1 %8, label %9, label %11

9:                                                ; preds = %2
  %10 = load ptr, ptr %3, align 8, !tbaa !526
  tail call void @_ZN3smt24relevancy_propagator_imp22propagate_relevant_andEP3app(ptr noundef nonnull align 8 dereferenceable(137) %1, ptr noundef %10)
  br label %11

11:                                               ; preds = %9, %2
  ret void
}